target datalayout = "e-m:e-p270:32:32-p271:32:32-p272:64:64-i64:64-i128:128-f80:128-n8:16:32:64-S128"
target triple = "x86_64-pc-linux-gnu"

@.str.113 = private unnamed_addr constant [3 x i8] c"ir\00", align 1
@.str.114 = private unnamed_addr constant [17 x i8] c"include_relative\00", align 1
@.str.157 = private unnamed_addr constant [31 x i8] c"\\%s: missing required argument\00", align 1

; Function Attrs: nounwind uwtable
define internal void @ignore_slash_options(ptr noundef %0) #0 {
  %2 = alloca ptr, align 8
  %3 = alloca ptr, align 8
  store ptr %0, ptr %2, align 8
  call void @llvm.lifetime.start.p0(i64 8, ptr %3) #10
  br label %4

4:                                                ; preds = %8, %1
  %5 = load ptr, ptr %2, align 8
  %6 = call ptr @psql_scan_slash_option(ptr noundef %5, i32 noundef 0, ptr noundef null, i1 noundef zeroext false)
  store ptr %6, ptr %3, align 8
  %7 = icmp ne ptr %6, null
  br i1 %7, label %8, label %10

8:                                                ; preds = %4
  %9 = load ptr, ptr %3, align 8
  call void @free(ptr noundef %9) #10
  br label %4, !llvm.loop !18

10:                                               ; preds = %4
  call void @llvm.lifetime.end.p0(i64 8, ptr %3) #10
  ret void
}

; Function Attrs: nounwind uwtable
define internal i32 @exec_command_include(ptr noundef %0, i1 noundef zeroext %1, ptr noundef %2) #0 {
  %4 = alloca ptr, align 8
  %5 = alloca i8, align 1
  %6 = alloca ptr, align 8
  %7 = alloca i8, align 1
  %8 = alloca ptr, align 8
  %9 = alloca i8, align 1
  store ptr %0, ptr %4, align 8
  %10 = zext i1 %1 to i8
  store i8 %10, ptr %5, align 1
  store ptr %2, ptr %6, align 8
  call void @llvm.lifetime.start.p0(i64 1, ptr %7) #10
  store i8 1, ptr %7, align 1
  %11 = load i8, ptr %5, align 1, !range !4, !noundef !5
  %12 = trunc i8 %11 to i1
  br i1 %12, label %13, label %39

13:                                               ; preds = %3
  call void @llvm.lifetime.start.p0(i64 8, ptr %8) #10
  %14 = load ptr, ptr %4, align 8
  %15 = call ptr @psql_scan_slash_option(ptr noundef %14, i32 noundef 0, ptr noundef null, i1 noundef zeroext true)
  store ptr %15, ptr %8, align 8
  %16 = load ptr, ptr %8, align 8
  %17 = icmp ne ptr %16, null
  br i1 %17, label %20, label %18

18:                                               ; preds = %13
  %19 = load ptr, ptr %6, align 8
  call void (i32, i32, ptr, ...) @pg_log_generic(i32 noundef 4, i32 noundef 0, ptr noundef @.str.157, ptr noundef %19)
  store i8 0, ptr %7, align 1
  br label %38

20:                                               ; preds = %13
  call void @llvm.lifetime.start.p0(i64 1, ptr %9) #10
  %21 = load ptr, ptr %6, align 8
  %22 = call i32 @strcmp(ptr noundef %21, ptr noundef @.str.113) #11
  %23 = icmp eq i32 %22, 0
  br i1 %23, label %28, label %24

24:                                               ; preds = %20
  %25 = load ptr, ptr %6, align 8
  %26 = call i32 @strcmp(ptr noundef %25, ptr noundef @.str.114) #11
  %27 = icmp eq i32 %26, 0
  br label %28

28:                                               ; preds = %24, %20
  %29 = phi i1 [ true, %20 ], [ %27, %24 ]
  %30 = zext i1 %29 to i8
  store i8 %30, ptr %9, align 1
  call void @expand_tilde(ptr noundef %8)
  %31 = load ptr, ptr %8, align 8
  %32 = load i8, ptr %9, align 1, !range !4, !noundef !5
  %33 = trunc i8 %32 to i1
  %34 = call i32 @process_file(ptr noundef %31, i1 noundef zeroext %33)
  %35 = icmp eq i32 %34, 0
  %36 = zext i1 %35 to i8
  store i8 %36, ptr %7, align 1
  %37 = load ptr, ptr %8, align 8
  call void @free(ptr noundef %37) #10
  call void @llvm.lifetime.end.p0(i64 1, ptr %9) #10
  br label %38

38:                                               ; preds = %28, %18
  call void @llvm.lifetime.end.p0(i64 8, ptr %8) #10
  br label %41

39:                                               ; preds = %3
  %40 = load ptr, ptr %4, align 8
  call void @ignore_slash_options(ptr noundef %40)
  br label %41

41:                                               ; preds = %39, %38
  %42 = load i8, ptr %7, align 1, !range !4, !noundef !5
  %43 = trunc i8 %42 to i1
  %44 = select i1 %43, i32 2, i32 5
  call void @llvm.lifetime.end.p0(i64 1, ptr %7) #10
  ret i32 %44
}