; Function Attrs: nounwind uwtable
define internal fastcc range(i32 2, 6) i32 @exec_command_include(ptr noundef %0, i1 noundef zeroext %1, ptr noundef %2) unnamed_addr #0 {
  %4 = alloca ptr, align 8
  br i1 %1, label %5, label %24

5:                                                ; preds = %3
  call void @llvm.lifetime.start.p0(i64 8, ptr nonnull %4) #16
  %6 = tail call ptr @psql_scan_slash_option(ptr noundef %0, i32 noundef 0, ptr noundef null, i1 noundef zeroext true) #16
  store ptr %6, ptr %4, align 8
  %.not = icmp eq ptr %6, null
  br i1 %.not, label %7, label %sub_0

7:                                                ; preds = %5
  tail call void (i32, i32, ptr, ...) @pg_log_generic(i32 noundef 4, i32 noundef 0, ptr noundef nonnull @.str.157, ptr noundef %2) #16
  br label %23

sub_0:                                            ; preds = %5
  %8 = load i8, ptr %2, align 1
  %.not7 = icmp eq i8 %8, 105
  br i1 %.not7, label %sub_1, label %.tail.thread

sub_1:                                            ; preds = %sub_0
  %9 = getelementptr inbounds nuw i8, ptr %2, i64 1
  %10 = load i8, ptr %9, align 1
  %.not8 = icmp eq i8 %10, 114
  br i1 %.not8, label %.tail, label %.tail.thread

.tail:                                            ; preds = %sub_1
  %11 = getelementptr inbounds nuw i8, ptr %2, i64 2
  %12 = load i8, ptr %11, align 1
  %13 = icmp eq i8 %12, 0
  br i1 %13, label %16, label %.tail.thread

.tail.thread:                                     ; preds = %sub_1, %sub_0, %.tail
  %14 = tail call i32 @strcmp(ptr noundef nonnull dereferenceable(1) %2, ptr noundef nonnull dereferenceable(17) @.str.114) #17
  %15 = icmp eq i32 %14, 0
  br label %16

16:                                               ; preds = %.tail.thread, %.tail
  %17 = phi i1 [ true, %.tail ], [ %15, %.tail.thread ]
  call void @expand_tilde(ptr noundef nonnull %4) #16
  %18 = load ptr, ptr %4, align 8
  %19 = call i32 @process_file(ptr noundef %18, i1 noundef zeroext %17)
  %20 = icmp eq i32 %19, 0
  %21 = load ptr, ptr %4, align 8
  call void @free(ptr noundef %21) #16
  %22 = select i1 %20, i32 2, i32 5
  br label %23

23:                                               ; preds = %16, %7
  %.0 = phi i32 [ %22, %16 ], [ 5, %7 ]
  call void @llvm.lifetime.end.p0(i64 8, ptr nonnull %4) #16
  br label %ignore_slash_options.exit

24:                                               ; preds = %3
  %25 = tail call ptr @psql_scan_slash_option(ptr noundef %0, i32 noundef 0, ptr noundef null, i1 noundef zeroext false) #16
  %.not2.i = icmp eq ptr %25, null
  br i1 %.not2.i, label %ignore_slash_options.exit, label %.lr.ph.i

.lr.ph.i:                                         ; preds = %24, %.lr.ph.i
  %26 = phi ptr [ %27, %.lr.ph.i ], [ %25, %24 ]
  tail call void @free(ptr noundef nonnull %26) #16
  %27 = tail call ptr @psql_scan_slash_option(ptr noundef %0, i32 noundef 0, ptr noundef null, i1 noundef zeroext false) #16
  %.not.i = icmp eq ptr %27, null
  br i1 %.not.i, label %ignore_slash_options.exit, label %.lr.ph.i, !llvm.loop !10

ignore_slash_options.exit:                        ; preds = %.lr.ph.i, %24, %23
  %.1 = phi i32 [ %.0, %23 ], [ 2, %24 ], [ 2, %.lr.ph.i ]
  ret i32 %.1
}